; ModuleID = 'source-C-CXX/59/1803.c'
source_filename = "source-C-CXX/59/1803.c"
target datalayout = "e-m:e-p270:32:32-p271:32:32-p272:64:64-i64:64-f80:128-n8:16:32:64-S128"
target triple = "x86_64-pc-linux-gnu"

@.str = private unnamed_addr constant [3 x i8] c"%d\00", align 1
@.str.1 = private unnamed_addr constant [6 x i8] c"empty\00", align 1
@.str.2 = private unnamed_addr constant [7 x i8] c"%d %d\0A\00", align 1

; Function Attrs: nofree nounwind sspstrong uwtable
define dso_local i32 @main() local_unnamed_addr #0 {
  %1 = alloca i32, align 4
  %2 = bitcast i32* %1 to i8*
  call void @llvm.lifetime.start.p0i8(i64 4, i8* nonnull %2) #3
  %3 = call i32 (i8*, ...) @__isoc99_scanf(i8* getelementptr inbounds ([3 x i8], [3 x i8]* @.str, i64 0, i64 0), i32* nonnull %1)
  %4 = load i32, i32* %1, align 4, !tbaa !5
  %5 = icmp slt i32 %4, 5
  br i1 %5, label %6, label %10

6:                                                ; preds = %0
  %7 = call i32 (i8*, ...) @printf(i8* nonnull dereferenceable(1) getelementptr inbounds ([6 x i8], [6 x i8]* @.str.1, i64 0, i64 0))
  %8 = load i32, i32* %1, align 4, !tbaa !5
  %9 = icmp slt i32 %8, 5
  br i1 %9, label %50, label %10

10:                                               ; preds = %0, %6
  %11 = phi i32 [ %4, %0 ], [ %8, %6 ]
  br label %12

12:                                               ; preds = %10, %44
  %13 = phi i32 [ %45, %44 ], [ %11, %10 ]
  %14 = phi i32 [ %49, %44 ], [ 6, %10 ]
  %15 = phi i32 [ %48, %44 ], [ 4, %10 ]
  %16 = phi i32 [ %27, %44 ], [ 3, %10 ]
  br label %17

17:                                               ; preds = %51, %12
  %18 = phi i32 [ 2, %12 ], [ %52, %51 ]
  %19 = urem i32 %16, %18
  %20 = icmp eq i32 %19, 0
  br i1 %20, label %25, label %21

21:                                               ; preds = %17
  %22 = or i32 %18, 1
  %23 = urem i32 %16, %22
  %24 = icmp eq i32 %23, 0
  br i1 %24, label %25, label %51

25:                                               ; preds = %51, %21, %17
  %26 = phi i32 [ %18, %17 ], [ %22, %21 ], [ %15, %51 ]
  %27 = add nuw nsw i32 %16, 2
  br label %28

28:                                               ; preds = %54, %25
  %29 = phi i32 [ 2, %25 ], [ %55, %54 ]
  %30 = urem i32 %27, %29
  %31 = icmp eq i32 %30, 0
  br i1 %31, label %36, label %32

32:                                               ; preds = %28
  %33 = or i32 %29, 1
  %34 = urem i32 %27, %33
  %35 = icmp eq i32 %34, 0
  br i1 %35, label %36, label %54

36:                                               ; preds = %54, %32, %28
  %37 = phi i32 [ %29, %28 ], [ %33, %32 ], [ %14, %54 ]
  %38 = icmp eq i32 %26, %16
  %39 = icmp eq i32 %37, %27
  %40 = select i1 %38, i1 %39, i1 false
  br i1 %40, label %41, label %44

41:                                               ; preds = %36
  %42 = call i32 (i8*, ...) @printf(i8* nonnull dereferenceable(1) getelementptr inbounds ([7 x i8], [7 x i8]* @.str.2, i64 0, i64 0), i32 %16, i32 %27)
  %43 = load i32, i32* %1, align 4, !tbaa !5
  br label %44

44:                                               ; preds = %36, %41
  %45 = phi i32 [ %13, %36 ], [ %43, %41 ]
  %46 = add nsw i32 %45, -2
  %47 = icmp sgt i32 %27, %46
  %48 = add i32 %15, 2
  %49 = add i32 %14, 2
  br i1 %47, label %50, label %12, !llvm.loop !9

50:                                               ; preds = %44, %6
  call void @llvm.lifetime.end.p0i8(i64 4, i8* nonnull %2) #3
  ret i32 0

51:                                               ; preds = %21
  %52 = add nuw i32 %18, 2
  %53 = icmp eq i32 %52, %15
  br i1 %53, label %25, label %17, !llvm.loop !11

54:                                               ; preds = %32
  %55 = add nuw i32 %29, 2
  %56 = icmp eq i32 %55, %14
  br i1 %56, label %36, label %28, !llvm.loop !12
}

; Function Attrs: argmemonly mustprogress nofree nosync nounwind willreturn
declare void @llvm.lifetime.start.p0i8(i64 immarg, i8* nocapture) #1

; Function Attrs: nofree nounwind
declare noundef i32 @__isoc99_scanf(i8* nocapture noundef readonly, ...) local_unnamed_addr #2

; Function Attrs: nofree nounwind
declare noundef i32 @printf(i8* nocapture noundef readonly, ...) local_unnamed_addr #2

; Function Attrs: argmemonly mustprogress nofree nosync nounwind willreturn
declare void @llvm.lifetime.end.p0i8(i64 immarg, i8* nocapture) #1


!llvm.module.flags = !{!0, !1, !2, !3}
!llvm.ident = !{!4}

!0 = !{i32 1, !"wchar_size", i32 4}
!1 = !{i32 7, !"PIC Level", i32 2}
!2 = !{i32 7, !"PIE Level", i32 2}
!3 = !{i32 7, !"uwtable", i32 1}
!4 = !{!"clang version 13.0.0"}
!5 = !{!6, !6, i64 0}
!6 = !{!"int", !7, i64 0}
!7 = !{!"omnipotent char", !8, i64 0}
!8 = !{!"Simple C/C++ TBAA"}
!9 = distinct !{!9, !10}
!10 = !{!"llvm.loop.mustprogress"}
!11 = distinct !{!11, !10}
!12 = distinct !{!12, !10}
